; Function Attrs: mustprogress uwtable
define void @_ZNK4lean16elab_environment3addERKNS_11declarationEb(ptr dead_on_unwind noalias writable writeonly sret(%"class.lean::elab_environment") align 8 captures(none) %0, ptr noundef nonnull readonly align 8 captures(none) dereferenceable(8) %1, ptr noundef nonnull align 8 dereferenceable(8) %2, i1 noundef zeroext %3) local_unnamed_addr #0 align 2 personality ptr @__gxx_personality_v0 {
  %5 = alloca %"class.lean::environment", align 8
  %6 = alloca %"class.lean::environment", align 8
  call void @llvm.lifetime.start.p0(i64 8, ptr nonnull %5) #15
  call void @llvm.lifetime.start.p0(i64 8, ptr nonnull %6) #15
  tail call void @llvm.experimental.noalias.scope.decl(metadata !3)
  %7 = load ptr, ptr %1, align 8, !tbaa !6, !noalias !3
  %8 = ptrtoint ptr %7 to i64
  %9 = and i64 %8, 1
  %.not.i.i.i = icmp eq i64 %9, 0
  br i1 %.not.i.i.i, label %10, label %_ZNK4lean16elab_environment13to_kernel_envEv.exit

10:                                               ; preds = %4
  %.val.i.i.i.i = load i32, ptr %7, align 4, !tbaa !11, !noalias !3
  %11 = icmp sgt i32 %.val.i.i.i.i, 0
  br i1 %11, label %12, label %14, !prof !14

12:                                               ; preds = %10
  %13 = add nuw nsw i32 %.val.i.i.i.i, 1
  store i32 %13, ptr %7, align 4, !tbaa !11, !noalias !3
  br label %_ZNK4lean16elab_environment13to_kernel_envEv.exit

14:                                               ; preds = %10
  %.not.i.i.i.i = icmp eq i32 %.val.i.i.i.i, 0
  br i1 %.not.i.i.i.i, label %_ZNK4lean16elab_environment13to_kernel_envEv.exit, label %15

15:                                               ; preds = %14
  tail call void @lean_inc_ref_cold(ptr noundef nonnull %7), !noalias !3
  %.pre.i.i = load ptr, ptr %1, align 8, !tbaa !6, !noalias !3
  br label %_ZNK4lean16elab_environment13to_kernel_envEv.exit

_ZNK4lean16elab_environment13to_kernel_envEv.exit: ; preds = %4, %12, %14, %15
  %16 = phi ptr [ %7, %4 ], [ %7, %12 ], [ %7, %14 ], [ %.pre.i.i, %15 ]
  %17 = tail call ptr @lean_elab_environment_to_kernel_env(ptr noundef %16), !noalias !3
  store ptr %17, ptr %6, align 8, !tbaa !6, !alias.scope !3
  invoke void @_ZNK4lean11environment3addERKNS_11declarationEb(ptr dead_on_unwind nonnull writable sret(%"class.lean::environment") align 8 %5, ptr noundef nonnull align 8 dereferenceable(8) %6, ptr noundef nonnull align 8 dereferenceable(8) %2, i1 noundef zeroext %3)
          to label %18 unwind label %77

18:                                               ; preds = %_ZNK4lean16elab_environment13to_kernel_envEv.exit
  %19 = load ptr, ptr %6, align 8, !tbaa !6
  %20 = ptrtoint ptr %19 to i64
  %21 = and i64 %20, 1
  %.not.i.i = icmp eq i64 %21, 0
  br i1 %.not.i.i, label %22, label %_ZN4lean10object_refD2Ev.exit

22:                                               ; preds = %18
  %23 = load i32, ptr %19, align 4, !tbaa !11
  %24 = icmp sgt i32 %23, 1
  br i1 %24, label %25, label %27, !prof !14

25:                                               ; preds = %22
  %26 = add nsw i32 %23, -1
  store i32 %26, ptr %19, align 4, !tbaa !11
  br label %_ZN4lean10object_refD2Ev.exit

27:                                               ; preds = %22
  %.not.i.i.i7 = icmp eq i32 %23, 0
  br i1 %.not.i.i.i7, label %_ZN4lean10object_refD2Ev.exit, label %28

28:                                               ; preds = %27
  invoke void @lean_dec_ref_cold(ptr noundef nonnull %19)
          to label %_ZN4lean10object_refD2Ev.exit unwind label %29

29:                                               ; preds = %28
  %30 = landingpad { ptr, i32 }
          catch ptr null
  %31 = extractvalue { ptr, i32 } %30, 0
  call void @__clang_call_terminate(ptr %31) #16
  unreachable

_ZN4lean10object_refD2Ev.exit:                    ; preds = %18, %25, %27, %28
  call void @llvm.lifetime.end.p0(i64 8, ptr nonnull %6) #15
  %32 = load ptr, ptr %1, align 8, !tbaa !6
  %33 = ptrtoint ptr %32 to i64
  %34 = and i64 %33, 1
  %.not.i.i8 = icmp eq i64 %34, 0
  br i1 %.not.i.i8, label %35, label %_ZNK4lean10object_ref10to_obj_argEv.exit

35:                                               ; preds = %_ZN4lean10object_refD2Ev.exit
  %.val.i.i.i = load i32, ptr %32, align 4, !tbaa !11
  %36 = icmp sgt i32 %.val.i.i.i, 0
  br i1 %36, label %37, label %39, !prof !14

37:                                               ; preds = %35
  %38 = add nuw nsw i32 %.val.i.i.i, 1
  store i32 %38, ptr %32, align 4, !tbaa !11
  br label %_ZNK4lean10object_ref10to_obj_argEv.exit

39:                                               ; preds = %35
  %.not.i.i.i9 = icmp eq i32 %.val.i.i.i, 0
  br i1 %.not.i.i.i9, label %_ZNK4lean10object_ref10to_obj_argEv.exit, label %40

40:                                               ; preds = %39
  invoke void @lean_inc_ref_cold(ptr noundef nonnull %32)
          to label %.noexc unwind label %79

.noexc:                                           ; preds = %40
  %.pre.i = load ptr, ptr %1, align 8, !tbaa !6
  br label %_ZNK4lean10object_ref10to_obj_argEv.exit

_ZNK4lean10object_ref10to_obj_argEv.exit:         ; preds = %.noexc, %39, %37, %_ZN4lean10object_refD2Ev.exit
  %41 = phi ptr [ %32, %_ZN4lean10object_refD2Ev.exit ], [ %32, %37 ], [ %32, %39 ], [ %.pre.i, %.noexc ]
  %42 = load ptr, ptr %5, align 8, !tbaa !6
  %43 = ptrtoint ptr %42 to i64
  %44 = and i64 %43, 1
  %.not.i.i10 = icmp eq i64 %44, 0
  br i1 %.not.i.i10, label %45, label %_ZNK4lean10object_ref10to_obj_argEv.exit15

45:                                               ; preds = %_ZNK4lean10object_ref10to_obj_argEv.exit
  %.val.i.i.i11 = load i32, ptr %42, align 4, !tbaa !11
  %46 = icmp sgt i32 %.val.i.i.i11, 0
  br i1 %46, label %47, label %49, !prof !14

47:                                               ; preds = %45
  %48 = add nuw nsw i32 %.val.i.i.i11, 1
  store i32 %48, ptr %42, align 4, !tbaa !11
  br label %_ZNK4lean10object_ref10to_obj_argEv.exit15

49:                                               ; preds = %45
  %.not.i.i.i12 = icmp eq i32 %.val.i.i.i11, 0
  br i1 %.not.i.i.i12, label %_ZNK4lean10object_ref10to_obj_argEv.exit15, label %50

50:                                               ; preds = %49
  invoke void @lean_inc_ref_cold(ptr noundef nonnull %42)
          to label %.noexc14 unwind label %79

.noexc14:                                         ; preds = %50
  %.pre.i13 = load ptr, ptr %5, align 8, !tbaa !6
  br label %_ZNK4lean10object_ref10to_obj_argEv.exit15

_ZNK4lean10object_ref10to_obj_argEv.exit15:       ; preds = %.noexc14, %49, %47, %_ZNK4lean10object_ref10to_obj_argEv.exit
  %51 = phi ptr [ %42, %_ZNK4lean10object_ref10to_obj_argEv.exit ], [ %42, %47 ], [ %42, %49 ], [ %.pre.i13, %.noexc14 ]
  %52 = load ptr, ptr %2, align 8, !tbaa !6
  %53 = ptrtoint ptr %52 to i64
  %54 = and i64 %53, 1
  %.not.i.i16 = icmp eq i64 %54, 0
  br i1 %.not.i.i16, label %55, label %_ZNK4lean10object_ref10to_obj_argEv.exit21

55:                                               ; preds = %_ZNK4lean10object_ref10to_obj_argEv.exit15
  %.val.i.i.i17 = load i32, ptr %52, align 4, !tbaa !11
  %56 = icmp sgt i32 %.val.i.i.i17, 0
  br i1 %56, label %57, label %59, !prof !14

57:                                               ; preds = %55
  %58 = add nuw nsw i32 %.val.i.i.i17, 1
  store i32 %58, ptr %52, align 4, !tbaa !11
  br label %_ZNK4lean10object_ref10to_obj_argEv.exit21

59:                                               ; preds = %55
  %.not.i.i.i18 = icmp eq i32 %.val.i.i.i17, 0
  br i1 %.not.i.i.i18, label %_ZNK4lean10object_ref10to_obj_argEv.exit21, label %60

60:                                               ; preds = %59
  invoke void @lean_inc_ref_cold(ptr noundef nonnull %52)
          to label %.noexc20 unwind label %79

.noexc20:                                         ; preds = %60
  %.pre.i19 = load ptr, ptr %2, align 8, !tbaa !6
  br label %_ZNK4lean10object_ref10to_obj_argEv.exit21

_ZNK4lean10object_ref10to_obj_argEv.exit21:       ; preds = %.noexc20, %59, %57, %_ZNK4lean10object_ref10to_obj_argEv.exit15
  %61 = phi ptr [ %52, %_ZNK4lean10object_ref10to_obj_argEv.exit15 ], [ %52, %57 ], [ %52, %59 ], [ %.pre.i19, %.noexc20 ]
  %62 = invoke ptr @lean_elab_environment_update_base_after_kernel_add(ptr noundef %41, ptr noundef %51, ptr noundef %61)
          to label %63 unwind label %79

63:                                               ; preds = %_ZNK4lean10object_ref10to_obj_argEv.exit21
  store ptr %62, ptr %0, align 8, !tbaa !6
  %64 = load ptr, ptr %5, align 8, !tbaa !6
  %65 = ptrtoint ptr %64 to i64
  %66 = and i64 %65, 1
  %.not.i.i22 = icmp eq i64 %66, 0
  br i1 %.not.i.i22, label %67, label %_ZN4lean10object_refD2Ev.exit24

67:                                               ; preds = %63
  %68 = load i32, ptr %64, align 4, !tbaa !11
  %69 = icmp sgt i32 %68, 1
  br i1 %69, label %70, label %72, !prof !14

70:                                               ; preds = %67
  %71 = add nsw i32 %68, -1
  store i32 %71, ptr %64, align 4, !tbaa !11
  br label %_ZN4lean10object_refD2Ev.exit24

72:                                               ; preds = %67
  %.not.i.i.i23 = icmp eq i32 %68, 0
  br i1 %.not.i.i.i23, label %_ZN4lean10object_refD2Ev.exit24, label %73

73:                                               ; preds = %72
  invoke void @lean_dec_ref_cold(ptr noundef nonnull %64)
          to label %_ZN4lean10object_refD2Ev.exit24 unwind label %74

74:                                               ; preds = %73
  %75 = landingpad { ptr, i32 }
          catch ptr null
  %76 = extractvalue { ptr, i32 } %75, 0
  call void @__clang_call_terminate(ptr %76) #16
  unreachable

_ZN4lean10object_refD2Ev.exit24:                  ; preds = %63, %70, %72, %73
  call void @llvm.lifetime.end.p0(i64 8, ptr nonnull %5) #15
  ret void

77:                                               ; preds = %_ZNK4lean16elab_environment13to_kernel_envEv.exit
  %78 = landingpad { ptr, i32 }
          cleanup
  call void @_ZN4lean10object_refD2Ev(ptr noundef nonnull align 8 dereferenceable(8) %6) #15
  call void @llvm.lifetime.end.p0(i64 8, ptr nonnull %6) #15
  br label %81

79:                                               ; preds = %60, %50, %40, %_ZNK4lean10object_ref10to_obj_argEv.exit21
  %80 = landingpad { ptr, i32 }
          cleanup
  call void @_ZN4lean10object_refD2Ev(ptr noundef nonnull align 8 dereferenceable(8) %5) #15
  br label %81

81:                                               ; preds = %79, %77
  %.pn = phi { ptr, i32 } [ %80, %79 ], [ %78, %77 ]
  call void @llvm.lifetime.end.p0(i64 8, ptr nonnull %5) #15
  resume { ptr, i32 } %.pn
}